target datalayout = "e-m:e-p270:32:32-p271:32:32-p272:64:64-i64:64-i128:128-f80:128-n8:16:32:64-S128"
target triple = "x86_64-pc-linux-gnu"

%struct.filter_prov_globals_st = type { ptr, ptr, [10 x %struct.anon], i32, i32, i64, i32 }
%struct.anon = type { i32, [6 x %struct.ossl_algorithm_st] }
%struct.ossl_algorithm_st = type { ptr, ptr, ptr, ptr }
%struct.ossl_dispatch_st = type { i32, ptr }

@ourglobals = internal global %struct.filter_prov_globals_st zeroinitializer, align 8
@.str = private unnamed_addr constant [8 x i8] c"default\00", align 1

; Function Attrs: inlinehint nounwind uwtable
define internal ptr @OSSL_FUNC_core_get_libctx(ptr noundef %0) #3 {
  %2 = alloca ptr, align 8
  store ptr %0, ptr %2, align 8, !tbaa !9
  %3 = load ptr, ptr %2, align 8, !tbaa !9
  %4 = getelementptr inbounds nuw %struct.ossl_dispatch_st, ptr %3, i32 0, i32 1
  %5 = load ptr, ptr %4, align 8, !tbaa !27
  ret ptr %5
}

; Function Attrs: nounwind uwtable
define dso_local i32 @filter_provider_init(ptr noundef %0, ptr noundef %1, ptr noundef %2, ptr noundef %3) #0 {
  %5 = alloca i32, align 4
  %6 = alloca ptr, align 8
  %7 = alloca ptr, align 8
  %8 = alloca ptr, align 8
  %9 = alloca ptr, align 8
  %10 = alloca ptr, align 8
  %11 = alloca ptr, align 8
  %12 = alloca i32, align 4
  store ptr %0, ptr %6, align 8, !tbaa !4
  store ptr %1, ptr %7, align 8, !tbaa !9
  store ptr %2, ptr %8, align 8, !tbaa !11
  store ptr %3, ptr %9, align 8, !tbaa !13
  call void @llvm.lifetime.start.p0(i64 8, ptr %10) #7
  store ptr null, ptr %10, align 8, !tbaa !13
  call void @llvm.lifetime.start.p0(i64 8, ptr %11) #7
  %13 = load ptr, ptr %7, align 8, !tbaa !9
  %14 = call i32 @ossl_prov_bio_from_dispatch(ptr noundef %13)
  %15 = icmp ne i32 %14, 0
  br i1 %15, label %17, label %16

16:                                               ; preds = %4
  store i32 0, ptr %5, align 4
  store i32 1, ptr %12, align 4
  br label %78

17:                                               ; preds = %4
  br label %18

18:                                               ; preds = %32, %17
  %19 = load ptr, ptr %7, align 8, !tbaa !9
  %20 = getelementptr inbounds nuw %struct.ossl_dispatch_st, ptr %19, i32 0, i32 0
  %21 = load i32, ptr %20, align 8, !tbaa !14
  %22 = icmp ne i32 %21, 0
  br i1 %22, label %23, label %35

23:                                               ; preds = %18
  %24 = load ptr, ptr %7, align 8, !tbaa !9
  %25 = getelementptr inbounds nuw %struct.ossl_dispatch_st, ptr %24, i32 0, i32 0
  %26 = load i32, ptr %25, align 8, !tbaa !14
  switch i32 %26, label %30 [
    i32 4, label %27
  ]

27:                                               ; preds = %23
  %28 = load ptr, ptr %7, align 8, !tbaa !9
  %29 = call ptr @OSSL_FUNC_core_get_libctx(ptr noundef %28)
  store ptr %29, ptr %10, align 8, !tbaa !13
  br label %31

30:                                               ; preds = %23
  br label %31

31:                                               ; preds = %30, %27
  br label %32

32:                                               ; preds = %31
  %33 = load ptr, ptr %7, align 8, !tbaa !9
  %34 = getelementptr inbounds nuw %struct.ossl_dispatch_st, ptr %33, i32 1
  store ptr %34, ptr %7, align 8, !tbaa !9
  br label %18, !llvm.loop !17

35:                                               ; preds = %18
  %36 = load ptr, ptr %10, align 8, !tbaa !13
  %37 = icmp eq ptr %36, null
  br i1 %37, label %38, label %39

38:                                               ; preds = %35
  store i32 0, ptr %5, align 4
  store i32 1, ptr %12, align 4
  br label %78

39:                                               ; preds = %35
  call void @llvm.memset.p0.i64(ptr align 8 @ourglobals, i8 0, i64 2040, i1 false)
  %40 = call ptr @OSSL_LIB_CTX_new()
  store ptr %40, ptr @ourglobals, align 8, !tbaa !19
  %41 = load ptr, ptr @ourglobals, align 8, !tbaa !19
  %42 = icmp eq ptr %41, null
  br i1 %42, label %43, label %44

43:                                               ; preds = %39
  br label %74

44:                                               ; preds = %39
  %45 = load ptr, ptr @ourglobals, align 8, !tbaa !19
  %46 = call ptr @OSSL_PROVIDER_load(ptr noundef %45, ptr noundef @.str)
  store ptr %46, ptr getelementptr inbounds nuw (%struct.filter_prov_globals_st, ptr @ourglobals, i32 0, i32 1), align 8, !tbaa !24
  %47 = load ptr, ptr getelementptr inbounds nuw (%struct.filter_prov_globals_st, ptr @ourglobals, i32 0, i32 1), align 8, !tbaa !24
  %48 = icmp eq ptr %47, null
  br i1 %48, label %49, label %50

49:                                               ; preds = %44
  br label %74

50:                                               ; preds = %44
  %51 = call ptr @ossl_prov_ctx_new()
  %52 = load ptr, ptr %9, align 8, !tbaa !13
  store ptr %51, ptr %52, align 8, !tbaa !13
  %53 = icmp eq ptr %51, null
  br i1 %53, label %57, label %54

54:                                               ; preds = %50
  %55 = call ptr @ossl_bio_prov_init_bio_method()
  store ptr %55, ptr %11, align 8, !tbaa !25
  %56 = icmp eq ptr %55, null
  br i1 %56, label %57, label %61

57:                                               ; preds = %54, %50
  %58 = load ptr, ptr %9, align 8, !tbaa !13
  %59 = load ptr, ptr %58, align 8, !tbaa !13
  call void @ossl_prov_ctx_free(ptr noundef %59)
  %60 = load ptr, ptr %9, align 8, !tbaa !13
  store ptr null, ptr %60, align 8, !tbaa !13
  br label %74

61:                                               ; preds = %54
  %62 = load ptr, ptr %9, align 8, !tbaa !13
  %63 = load ptr, ptr %62, align 8, !tbaa !13
  %64 = load ptr, ptr %10, align 8, !tbaa !13
  %65 = load ptr, ptr %6, align 8, !tbaa !4
  %66 = call ptr %64(ptr noundef %65)
  call void @ossl_prov_ctx_set0_libctx(ptr noundef %63, ptr noundef %66)
  %67 = load ptr, ptr %9, align 8, !tbaa !13
  %68 = load ptr, ptr %67, align 8, !tbaa !13
  %69 = load ptr, ptr %6, align 8, !tbaa !4
  call void @ossl_prov_ctx_set0_handle(ptr noundef %68, ptr noundef %69)
  %70 = load ptr, ptr %9, align 8, !tbaa !13
  %71 = load ptr, ptr %70, align 8, !tbaa !13
  %72 = load ptr, ptr %11, align 8, !tbaa !25
  call void @ossl_prov_ctx_set0_core_bio_method(ptr noundef %71, ptr noundef %72)
  %73 = load ptr, ptr %8, align 8, !tbaa !11
  store ptr @filter_dispatch_table, ptr %73, align 8, !tbaa !9
  store i32 1, ptr %5, align 4
  store i32 1, ptr %12, align 4
  br label %78

74:                                               ; preds = %57, %49, %43
  %75 = load ptr, ptr getelementptr inbounds nuw (%struct.filter_prov_globals_st, ptr @ourglobals, i32 0, i32 1), align 8, !tbaa !24
  %76 = call i32 @OSSL_PROVIDER_unload(ptr noundef %75)
  %77 = load ptr, ptr @ourglobals, align 8, !tbaa !19
  call void @OSSL_LIB_CTX_free(ptr noundef %77)
  store i32 0, ptr %5, align 4
  store i32 1, ptr %12, align 4
  br label %78

78:                                               ; preds = %74, %61, %38, %16
  call void @llvm.lifetime.end.p0(i64 8, ptr %11) #7
  call void @llvm.lifetime.end.p0(i64 8, ptr %10) #7
  %79 = load i32, ptr %5, align 4
  ret i32 %79
}