; Function Attrs: nounwind uwtable
define dso_local range(i32 0, 2) i32 @filter_provider_init(ptr noundef %0, ptr noundef %1, ptr noundef writeonly captures(none) %2, ptr noundef captures(none) %3) local_unnamed_addr #0 {
  %5 = tail call i32 @ossl_prov_bio_from_dispatch(ptr noundef %1) #7
  %.not = icmp eq i32 %5, 0
  br i1 %.not, label %35, label %.preheader

.preheader:                                       ; preds = %4, %9
  %.018 = phi ptr [ %10, %9 ], [ %1, %4 ]
  %.017 = phi ptr [ %.1, %9 ], [ null, %4 ]
  %6 = load i32, ptr %.018, align 8, !tbaa !4
  switch i32 %6, label %9 [
    i32 0, label %11
    i32 4, label %7
  ]

7:                                                ; preds = %.preheader
  %8 = getelementptr i8, ptr %.018, i64 8
  %.018.val = load ptr, ptr %8, align 8, !tbaa !10
  br label %9

9:                                                ; preds = %.preheader, %7
  %.1 = phi ptr [ %.018.val, %7 ], [ %.017, %.preheader ]
  %10 = getelementptr inbounds nuw i8, ptr %.018, i64 16
  br label %.preheader, !llvm.loop !11

11:                                               ; preds = %.preheader
  %12 = icmp eq ptr %.017, null
  br i1 %12, label %35, label %13

13:                                               ; preds = %11
  tail call void @llvm.memset.p0.i64(ptr noundef nonnull align 8 dereferenceable(2040) @ourglobals, i8 0, i64 2040, i1 false)
  %14 = tail call ptr @OSSL_LIB_CTX_new() #7
  store ptr %14, ptr @ourglobals, align 8, !tbaa !13
  %15 = icmp eq ptr %14, null
  br i1 %15, label %31, label %16

16:                                               ; preds = %13
  %17 = tail call ptr @OSSL_PROVIDER_load(ptr noundef nonnull %14, ptr noundef nonnull @.str) #7
  store ptr %17, ptr getelementptr inbounds nuw (i8, ptr @ourglobals, i64 8), align 8, !tbaa !18
  %18 = icmp eq ptr %17, null
  br i1 %18, label %31, label %19

19:                                               ; preds = %16
  %20 = tail call ptr @ossl_prov_ctx_new() #7
  store ptr %20, ptr %3, align 8, !tbaa !19
  %21 = icmp eq ptr %20, null
  br i1 %21, label %25, label %22

22:                                               ; preds = %19
  %23 = tail call ptr @ossl_bio_prov_init_bio_method() #7
  %24 = icmp eq ptr %23, null
  %.pre = load ptr, ptr %3, align 8, !tbaa !19
  br i1 %24, label %25, label %27

25:                                               ; preds = %22, %19
  %26 = phi ptr [ %.pre, %22 ], [ null, %19 ]
  tail call void @ossl_prov_ctx_free(ptr noundef %26) #7
  store ptr null, ptr %3, align 8, !tbaa !19
  br label %31

27:                                               ; preds = %22
  %28 = tail call ptr %.017(ptr noundef %0) #7
  tail call void @ossl_prov_ctx_set0_libctx(ptr noundef %.pre, ptr noundef %28) #7
  %29 = load ptr, ptr %3, align 8, !tbaa !19
  tail call void @ossl_prov_ctx_set0_handle(ptr noundef %29, ptr noundef %0) #7
  %30 = load ptr, ptr %3, align 8, !tbaa !19
  tail call void @ossl_prov_ctx_set0_core_bio_method(ptr noundef %30, ptr noundef nonnull %23) #7
  store ptr @filter_dispatch_table, ptr %2, align 8, !tbaa !20
  br label %35

31:                                               ; preds = %16, %13, %25
  %32 = load ptr, ptr getelementptr inbounds nuw (i8, ptr @ourglobals, i64 8), align 8, !tbaa !18
  %33 = tail call i32 @OSSL_PROVIDER_unload(ptr noundef %32) #7
  %34 = load ptr, ptr @ourglobals, align 8, !tbaa !13
  tail call void @OSSL_LIB_CTX_free(ptr noundef %34) #7
  br label %35

35:                                               ; preds = %11, %4, %31, %27
  %.0 = phi i32 [ 0, %31 ], [ 1, %27 ], [ 0, %4 ], [ 0, %11 ]
  ret i32 %.0
}